; Function Attrs: mustprogress uwtable
define noundef zeroext i1 @_ZN3g2o32OptimizationAlgorithmWithHessian16computeMarginalsERNS_17SparseBlockMatrixIN5Eigen6MatrixIdLin1ELin1ELi0ELin1ELin1EEEEERKSt6vectorISt4pairIiiESaIS9_EE(ptr noundef nonnull readonly align 8 captures(none) dereferenceable(80) %0, ptr noundef nonnull align 1 %1, ptr noundef nonnull align 1 %2) unnamed_addr #4 align 2 {
  %4 = getelementptr inbounds nuw i8, ptr %0, i64 64
  %5 = load ptr, ptr %4, align 8, !tbaa !47
  %6 = load ptr, ptr %5, align 8, !tbaa !3
  %7 = getelementptr inbounds nuw i8, ptr %6, i64 56
  %8 = load ptr, ptr %7, align 8
  %9 = tail call noundef zeroext i1 %8(ptr noundef nonnull align 8 dereferenceable(64) %5, ptr noundef nonnull align 1 %1, ptr noundef nonnull align 1 %2)
  ret i1 %9
}